
main_m_unit.elf:     file format elf32-littleriscv

Sections:
Idx Name          Size      VMA       LMA       File off  Algn
  0 .rom          000003f8  00000000  00000000  00001000  2**2
                  CONTENTS, ALLOC, LOAD, READONLY, CODE
  1 .text.__do_global_dtors_aux 00000048  000003f8  000003f8  000013f8  2**2
                  CONTENTS, ALLOC, LOAD, READONLY, CODE
  2 .text.frame_dummy 00000020  00000440  00000440  00001440  2**2
                  CONTENTS, ALLOC, LOAD, READONLY, CODE
  3 .text.trap    000000c4  00000460  00000460  00001460  2**2
                  CONTENTS, ALLOC, LOAD, READONLY, CODE
  4 .text.irq     000000a4  00000524  00000524  00001524  2**2
                  CONTENTS, ALLOC, LOAD, READONLY, CODE
  5 .init         00000080  000005c8  000005c8  000015c8  2**2
                  CONTENTS, ALLOC, LOAD, READONLY, CODE
  6 .text.__errno 00000008  00000648  00000648  00001648  2**2
                  CONTENTS, ALLOC, LOAD, READONLY, CODE
  7 .text.exit    00000034  00000650  00000650  00001650  2**2
                  CONTENTS, ALLOC, LOAD, READONLY, CODE
  8 .text.__libc_init_array 00000084  00000684  00000684  00001684  2**2
                  CONTENTS, ALLOC, LOAD, READONLY, CODE
  9 .text.memcpy  0000011c  00000708  00000708  00001708  2**2
                  CONTENTS, ALLOC, LOAD, READONLY, CODE
 10 .text.startup.register_fini 00000018  00000824  00000824  00001824  2**2
                  CONTENTS, ALLOC, LOAD, READONLY, CODE
 11 .text.__call_exitprocs 00000124  0000083c  0000083c  0000183c  2**2
                  CONTENTS, ALLOC, LOAD, READONLY, CODE
 12 .text.__libc_fini_array 00000054  00000960  00000960  00001960  2**2
                  CONTENTS, ALLOC, LOAD, READONLY, CODE
 13 .text.atexit  00000014  000009b4  000009b4  000019b4  2**2
                  CONTENTS, ALLOC, LOAD, READONLY, CODE
 14 .text.__register_exitproc 0000009c  000009c8  000009c8  000019c8  2**2
                  CONTENTS, ALLOC, LOAD, READONLY, CODE
 15 .eh_frame     00000004  00000a64  00000a64  00001a64  2**2
                  CONTENTS, ALLOC, LOAD, READONLY, DATA
 16 .rodata.str1.4 00000023  00000a68  00000a68  00001a68  2**2
                  CONTENTS, ALLOC, LOAD, READONLY, DATA
 17 .srodata._global_impure_ptr 00000004  00000a8c  00000a8c  00001a8c  2**2
                  CONTENTS, ALLOC, LOAD, READONLY, DATA
 18 .data         0000042c  02000000  00000a90  00002000  2**3
                  CONTENTS, ALLOC, LOAD, DATA
 19 .fini_array   00000004  0200042c  00000ebc  0000242c  2**2
                  CONTENTS, ALLOC, LOAD, DATA
 20 .init_array   00000004  02000430  00000ec0  00002430  2**2
                  CONTENTS, ALLOC, LOAD, DATA
 21 .init_array.00000 00000004  02000434  00000ec4  00002434  2**2
                  CONTENTS, ALLOC, LOAD, DATA
 22 .bss          00000018  02000438  00000ec8  00002438  2**2
                  ALLOC
 23 .sbss.completed.1 00000001  02000450  00000ec8  00002450  2**0
                  ALLOC
 24 .sbss         00000004  02000454  00000ec8  00002454  2**2
                  ALLOC
 25 .comment      00000034  00000000  00000000  00002438  2**0
                  CONTENTS, READONLY
 26 .debug_frame  00000180  00000000  00000000  0000246c  2**2
                  CONTENTS, READONLY, DEBUGGING, OCTETS

Disassembly of section .rom:

00000000 <_pvstart>:
   0:	30047073          	csrci	mstatus,8
   4:	00000297          	auipc	t0,0x0
   8:	5c428293          	addi	t0,t0,1476 # 5c8 <vector_base>
   c:	30729073          	csrw	mtvt,t0
  10:	00000297          	auipc	t0,0x0
  14:	51428293          	addi	t0,t0,1300 # 524 <irq_entry>
  18:	7ec29073          	csrw	0x7ec,t0
  1c:	7ec0e073          	csrsi	0x7ec,1
  20:	00000297          	auipc	t0,0x0
  24:	44028293          	addi	t0,t0,1088 # 460 <trap_entry>
  28:	30529073          	csrw	mtvec,t0
  2c:	02001137          	lui	sp,0x2001
  30:	80010113          	addi	sp,sp,-2048 # 2000800 <heap_end.0+0x3ac>
  34:	020001b7          	lui	gp,0x2000
  38:	00018193          	mv	gp,gp
  3c:	ff010113          	addi	sp,sp,-16
  40:	00012023          	sw	zero,0(sp)
  44:	00012223          	sw	zero,4(sp)
  48:	00012423          	sw	zero,8(sp)
  4c:	00012623          	sw	zero,12(sp)
  50:	0fc000ef          	jal	ra,14c <main>
  54:	00100073          	ebreak
	...

00000100 <_start>:
 100:	02000197          	auipc	gp,0x2000
 104:	f0018193          	addi	gp,gp,-256 # 2000000 <impure_data>
 108:	42c18513          	addi	a0,gp,1068 # 200042c <__do_global_dtors_aux_fini_array_entry>
 10c:	45018613          	addi	a2,gp,1104 # 2000450 <completed.1>
 110:	40a60633          	sub	a2,a2,a0
 114:	00000593          	li	a1,0
 118:	204000ef          	jal	ra,31c <memset>
 11c:	00001517          	auipc	a0,0x1
 120:	89850513          	addi	a0,a0,-1896 # 9b4 <atexit>
 124:	00050863          	beqz	a0,134 <_start+0x34>
 128:	00001517          	auipc	a0,0x1
 12c:	83850513          	addi	a0,a0,-1992 # 960 <__libc_fini_array>
 130:	085000ef          	jal	ra,9b4 <atexit>
 134:	550000ef          	jal	ra,684 <__libc_init_array>
 138:	00012503          	lw	a0,0(sp)
 13c:	00410593          	addi	a1,sp,4
 140:	00000613          	li	a2,0
 144:	008000ef          	jal	ra,14c <main>
 148:	5080006f          	j	650 <exit>

0000014c <main>:
 14c:	fc010113          	addi	sp,sp,-64
 150:	00300713          	li	a4,3
 154:	02e12e23          	sw	a4,60(sp)
 158:	00200793          	li	a5,2
 15c:	02f12c23          	sw	a5,56(sp)
 160:	02e12a23          	sw	a4,52(sp)
 164:	02f12823          	sw	a5,48(sp)
 168:	800007b7          	lui	a5,0x80000
 16c:	fff7c793          	not	a5,a5
 170:	02f12623          	sw	a5,44(sp)
 174:	00100793          	li	a5,1
 178:	02f12423          	sw	a5,40(sp)
 17c:	80000737          	lui	a4,0x80000
 180:	fff74713          	not	a4,a4
 184:	00000793          	li	a5,0
 188:	02e12023          	sw	a4,32(sp)
 18c:	02f12223          	sw	a5,36(sp)
 190:	00200713          	li	a4,2
 194:	00000793          	li	a5,0
 198:	00e12c23          	sw	a4,24(sp)
 19c:	00f12e23          	sw	a5,28(sp)
 1a0:	02c12783          	lw	a5,44(sp)
 1a4:	03812703          	lw	a4,56(sp)
 1a8:	02f70633          	mul	a2,a4,a5
 1ac:	00000693          	li	a3,0
 1b0:	00c12823          	sw	a2,16(sp)
 1b4:	00d12a23          	sw	a3,20(sp)
 1b8:	03412783          	lw	a5,52(sp)
 1bc:	03012703          	lw	a4,48(sp)
 1c0:	02e787b3          	mul	a5,a5,a4
 1c4:	00f12623          	sw	a5,12(sp)
 1c8:	02012703          	lw	a4,32(sp)
 1cc:	02412783          	lw	a5,36(sp)
 1d0:	01812503          	lw	a0,24(sp)
 1d4:	01c12583          	lw	a1,28(sp)
 1d8:	02a70733          	mul	a4,a4,a0
 1dc:	00e12423          	sw	a4,8(sp)
 1e0:	03412783          	lw	a5,52(sp)
 1e4:	03012703          	lw	a4,48(sp)
 1e8:	02e787b3          	mul	a5,a5,a4
 1ec:	00f12623          	sw	a5,12(sp)
 1f0:	03c12783          	lw	a5,60(sp)
 1f4:	03812703          	lw	a4,56(sp)
 1f8:	02e7c7b3          	div	a5,a5,a4
 1fc:	00f12223          	sw	a5,4(sp)
 200:	02c12783          	lw	a5,44(sp)
 204:	02812703          	lw	a4,40(sp)
 208:	02e7d7b3          	divu	a5,a5,a4
 20c:	00f12023          	sw	a5,0(sp)
 210:	03c12783          	lw	a5,60(sp)
 214:	03812703          	lw	a4,56(sp)
 218:	02e7e7b3          	rem	a5,a5,a4
 21c:	00f12223          	sw	a5,4(sp)
 220:	02c12783          	lw	a5,44(sp)
 224:	02812703          	lw	a4,40(sp)
 228:	02e7f7b3          	remu	a5,a5,a4
 22c:	00f12023          	sw	a5,0(sp)
 230:	f71ff06f          	j	1a0 <main+0x54>

00000234 <_access>:
 234:	0040006f          	j	238 <unimplemented_syscall>

00000238 <unimplemented_syscall>:
 238:	000017b7          	lui	a5,0x1
 23c:	a6878793          	addi	a5,a5,-1432 # a68 <__FRAME_END__+0x4>
 240:	05500713          	li	a4,85
 244:	100006b7          	lui	a3,0x10000
 248:	00178793          	addi	a5,a5,1
 24c:	00e6a023          	sw	a4,0(a3) # 10000000 <heap_end.0+0xdfffbac>
 250:	0007c703          	lbu	a4,0(a5)
 254:	fe071ae3          	bnez	a4,248 <unimplemented_syscall+0x10>
 258:	00100073          	ebreak

0000025c <_read>:
 25c:	00000513          	li	a0,0
 260:	00008067          	ret

00000264 <_write>:
 264:	00060513          	mv	a0,a2
 268:	00c58733          	add	a4,a1,a2
 26c:	00e58c63          	beq	a1,a4,284 <_write+0x20>
 270:	100006b7          	lui	a3,0x10000
 274:	00158593          	addi	a1,a1,1
 278:	fff5c783          	lbu	a5,-1(a1)
 27c:	00f6a023          	sw	a5,0(a3) # 10000000 <heap_end.0+0xdfffbac>
 280:	feb71ae3          	bne	a4,a1,274 <_write+0x10>
 284:	00008067          	ret

00000288 <_close>:
 288:	00000513          	li	a0,0
 28c:	00008067          	ret

00000290 <_fstat>:
 290:	ff010113          	addi	sp,sp,-16
 294:	00112623          	sw	ra,12(sp)
 298:	3b0000ef          	jal	ra,648 <__errno>
 29c:	00200793          	li	a5,2
 2a0:	00f52023          	sw	a5,0(a0)
 2a4:	fff00513          	li	a0,-1
 2a8:	00c12083          	lw	ra,12(sp)
 2ac:	01010113          	addi	sp,sp,16
 2b0:	00008067          	ret

000002b4 <_sbrk>:
 2b4:	00050793          	mv	a5,a0
 2b8:	4541a703          	lw	a4,1108(gp) # 2000454 <heap_end.0>
 2bc:	00071663          	bnez	a4,2c8 <_sbrk+0x14>
 2c0:	45018713          	addi	a4,gp,1104 # 2000450 <completed.1>
 2c4:	44e1aa23          	sw	a4,1108(gp) # 2000454 <heap_end.0>
 2c8:	4541a503          	lw	a0,1108(gp) # 2000454 <heap_end.0>
 2cc:	00a787b3          	add	a5,a5,a0
 2d0:	44f1aa23          	sw	a5,1108(gp) # 2000454 <heap_end.0>
 2d4:	00008067          	ret

000002d8 <_exit>:
 2d8:	00100073          	ebreak

000002dc <init_data_section>:
 2dc:	ff010113          	addi	sp,sp,-16
 2e0:	00112623          	sw	ra,12(sp)
 2e4:	00018613          	mv	a2,gp
 2e8:	42c18793          	addi	a5,gp,1068 # 200042c <__do_global_dtors_aux_fini_array_entry>
 2ec:	40c78633          	sub	a2,a5,a2
 2f0:	000015b7          	lui	a1,0x1
 2f4:	a9058593          	addi	a1,a1,-1392 # a90 <_data_lma>
 2f8:	00018513          	mv	a0,gp
 2fc:	40c000ef          	jal	ra,708 <memcpy>
 300:	00c12083          	lw	ra,12(sp)
 304:	01010113          	addi	sp,sp,16
 308:	00008067          	ret

0000030c <delay_>:
 30c:	fff00793          	li	a5,-1
 310:	fff50513          	addi	a0,a0,-1
 314:	fef51ee3          	bne	a0,a5,310 <delay_+0x4>
 318:	00008067          	ret

0000031c <memset>:
 31c:	00f00313          	li	t1,15
 320:	00050713          	mv	a4,a0
 324:	02c37e63          	bgeu	t1,a2,360 <memset+0x44>
 328:	00f77793          	andi	a5,a4,15
 32c:	0a079063          	bnez	a5,3cc <memset+0xb0>
 330:	08059263          	bnez	a1,3b4 <memset+0x98>
 334:	ff067693          	andi	a3,a2,-16
 338:	00f67613          	andi	a2,a2,15
 33c:	00e686b3          	add	a3,a3,a4
 340:	00b72023          	sw	a1,0(a4) # 80000000 <heap_end.0+0x7dfffbac>
 344:	00b72223          	sw	a1,4(a4)
 348:	00b72423          	sw	a1,8(a4)
 34c:	00b72623          	sw	a1,12(a4)
 350:	01070713          	addi	a4,a4,16
 354:	fed766e3          	bltu	a4,a3,340 <memset+0x24>
 358:	00061463          	bnez	a2,360 <memset+0x44>
 35c:	00008067          	ret
 360:	40c306b3          	sub	a3,t1,a2
 364:	00269693          	slli	a3,a3,0x2
 368:	00000297          	auipc	t0,0x0
 36c:	005686b3          	add	a3,a3,t0
 370:	00c68067          	jr	12(a3)
 374:	00b70723          	sb	a1,14(a4)
 378:	00b706a3          	sb	a1,13(a4)
 37c:	00b70623          	sb	a1,12(a4)
 380:	00b705a3          	sb	a1,11(a4)
 384:	00b70523          	sb	a1,10(a4)
 388:	00b704a3          	sb	a1,9(a4)
 38c:	00b70423          	sb	a1,8(a4)
 390:	00b703a3          	sb	a1,7(a4)
 394:	00b70323          	sb	a1,6(a4)
 398:	00b702a3          	sb	a1,5(a4)
 39c:	00b70223          	sb	a1,4(a4)
 3a0:	00b701a3          	sb	a1,3(a4)
 3a4:	00b70123          	sb	a1,2(a4)
 3a8:	00b700a3          	sb	a1,1(a4)
 3ac:	00b70023          	sb	a1,0(a4)
 3b0:	00008067          	ret
 3b4:	0ff5f593          	andi	a1,a1,255
 3b8:	00859693          	slli	a3,a1,0x8
 3bc:	00d5e5b3          	or	a1,a1,a3
 3c0:	01059693          	slli	a3,a1,0x10
 3c4:	00d5e5b3          	or	a1,a1,a3
 3c8:	f6dff06f          	j	334 <memset+0x18>
 3cc:	00279693          	slli	a3,a5,0x2
 3d0:	00000297          	auipc	t0,0x0
 3d4:	005686b3          	add	a3,a3,t0
 3d8:	00008293          	mv	t0,ra
 3dc:	fa0680e7          	jalr	-96(a3)
 3e0:	00028093          	mv	ra,t0
 3e4:	ff078793          	addi	a5,a5,-16
 3e8:	40f70733          	sub	a4,a4,a5
 3ec:	00f60633          	add	a2,a2,a5
 3f0:	f6c378e3          	bgeu	t1,a2,360 <memset+0x44>
 3f4:	f3dff06f          	j	330 <memset+0x14>

Disassembly of section .text.__do_global_dtors_aux:

000003f8 <__do_global_dtors_aux>:
 3f8:	ff010113          	addi	sp,sp,-16
 3fc:	00812423          	sw	s0,8(sp)
 400:	45018413          	addi	s0,gp,1104 # 2000450 <completed.1>
 404:	00044783          	lbu	a5,0(s0)
 408:	00112623          	sw	ra,12(sp)
 40c:	02079263          	bnez	a5,430 <__do_global_dtors_aux+0x38>
 410:	00000793          	li	a5,0
 414:	00078a63          	beqz	a5,428 <__do_global_dtors_aux+0x30>
 418:	00000517          	auipc	a0,0x0
 41c:	64c50513          	addi	a0,a0,1612 # a64 <__FRAME_END__>
 420:	00000097          	auipc	ra,0x0
 424:	000000e7          	jalr	zero # 0 <_pvstart>
 428:	00100793          	li	a5,1
 42c:	00f40023          	sb	a5,0(s0)
 430:	00c12083          	lw	ra,12(sp)
 434:	00812403          	lw	s0,8(sp)
 438:	01010113          	addi	sp,sp,16
 43c:	00008067          	ret

Disassembly of section .text.frame_dummy:

00000440 <frame_dummy>:
 440:	00000793          	li	a5,0
 444:	00078c63          	beqz	a5,45c <frame_dummy+0x1c>
 448:	43818593          	addi	a1,gp,1080 # 2000438 <object.0>
 44c:	00000517          	auipc	a0,0x0
 450:	61850513          	addi	a0,a0,1560 # a64 <__FRAME_END__>
 454:	00000317          	auipc	t1,0x0
 458:	00000067          	jr	zero # 0 <_pvstart>
 45c:	00008067          	ret

Disassembly of section .text.trap:

00000460 <trap_entry>:
 460:	00112023          	sw	ra,0(sp)
 464:	00412223          	sw	tp,4(sp)
 468:	00512423          	sw	t0,8(sp)
 46c:	00612623          	sw	t1,12(sp)
 470:	00712823          	sw	t2,16(sp)
 474:	00a12a23          	sw	a0,20(sp)
 478:	00b12c23          	sw	a1,24(sp)
 47c:	00c12e23          	sw	a2,28(sp)
 480:	02d12023          	sw	a3,32(sp)
 484:	02e12223          	sw	a4,36(sp)
 488:	02f12423          	sw	a5,40(sp)
 48c:	03012623          	sw	a6,44(sp)
 490:	03112823          	sw	a7,48(sp)
 494:	03c12a23          	sw	t3,52(sp)
 498:	03d12c23          	sw	t4,56(sp)
 49c:	03e12e23          	sw	t5,60(sp)
 4a0:	05f12023          	sw	t6,64(sp)
 4a4:	341022f3          	csrr	t0,mepc
 4a8:	04512023          	sw	t0,64(sp)
 4ac:	300022f3          	csrr	t0,mstatus
 4b0:	04512223          	sw	t0,68(sp)
 4b4:	7c4022f3          	csrr	t0,0x7c4
 4b8:	04512423          	sw	t0,72(sp)
 4bc:	34202573          	csrr	a0,mcause
 4c0:	00010593          	mv	a1,sp
 4c4:	04012283          	lw	t0,64(sp)
 4c8:	34129073          	csrw	mepc,t0
 4cc:	04412283          	lw	t0,68(sp)
 4d0:	30029073          	csrw	mstatus,t0
 4d4:	04812283          	lw	t0,72(sp)
 4d8:	7c429073          	csrw	0x7c4,t0
 4dc:	00012083          	lw	ra,0(sp)
 4e0:	00412203          	lw	tp,4(sp)
 4e4:	00812283          	lw	t0,8(sp)
 4e8:	00c12303          	lw	t1,12(sp)
 4ec:	01012383          	lw	t2,16(sp)
 4f0:	01412503          	lw	a0,20(sp)
 4f4:	01812583          	lw	a1,24(sp)
 4f8:	01c12603          	lw	a2,28(sp)
 4fc:	02012683          	lw	a3,32(sp)
 500:	02412703          	lw	a4,36(sp)
 504:	02812783          	lw	a5,40(sp)
 508:	02c12803          	lw	a6,44(sp)
 50c:	03012883          	lw	a7,48(sp)
 510:	03412e03          	lw	t3,52(sp)
 514:	03812e83          	lw	t4,56(sp)
 518:	03c12f03          	lw	t5,60(sp)
 51c:	05010113          	addi	sp,sp,80
 520:	30200073          	mret

Disassembly of section .text.irq:

00000524 <irq_entry>:
 524:	00112023          	sw	ra,0(sp)
 528:	00412223          	sw	tp,4(sp)
 52c:	00512423          	sw	t0,8(sp)
 530:	00612623          	sw	t1,12(sp)
 534:	00712823          	sw	t2,16(sp)
 538:	00a12a23          	sw	a0,20(sp)
 53c:	00b12c23          	sw	a1,24(sp)
 540:	00c12e23          	sw	a2,28(sp)
 544:	02d12023          	sw	a3,32(sp)
 548:	02e12223          	sw	a4,36(sp)
 54c:	02f12423          	sw	a5,40(sp)
 550:	03012623          	sw	a6,44(sp)
 554:	03112823          	sw	a7,48(sp)
 558:	03c12a23          	sw	t3,52(sp)
 55c:	03d12c23          	sw	t4,56(sp)
 560:	03e12e23          	sw	t5,60(sp)
 564:	05f12023          	sw	t6,64(sp)
 568:	34202673          	csrr	a2,mcause
 56c:	30702773          	csrr	a4,mtvt
 570:	00261613          	slli	a2,a2,0x2
 574:	00c70733          	add	a4,a4,a2
 578:	00072703          	lw	a4,0(a4)
 57c:	000700e7          	jalr	a4
 580:	00012083          	lw	ra,0(sp)
 584:	00412203          	lw	tp,4(sp)
 588:	00812283          	lw	t0,8(sp)
 58c:	00c12303          	lw	t1,12(sp)
 590:	01012383          	lw	t2,16(sp)
 594:	01412503          	lw	a0,20(sp)
 598:	01812583          	lw	a1,24(sp)
 59c:	01c12603          	lw	a2,28(sp)
 5a0:	02012683          	lw	a3,32(sp)
 5a4:	02412703          	lw	a4,36(sp)
 5a8:	02812783          	lw	a5,40(sp)
 5ac:	02c12803          	lw	a6,44(sp)
 5b0:	03012883          	lw	a7,48(sp)
 5b4:	03412e03          	lw	t3,52(sp)
 5b8:	03812e83          	lw	t4,56(sp)
 5bc:	03c12f03          	lw	t5,60(sp)
 5c0:	05010113          	addi	sp,sp,80
 5c4:	30200073          	mret

Disassembly of section .init:

000005c8 <vector_base>:
 5c8:	b39ff06f          	j	100 <_start>
	...

Disassembly of section .text.__errno:

00000648 <__errno>:
 648:	4281a503          	lw	a0,1064(gp) # 2000428 <_impure_ptr>
 64c:	00008067          	ret

Disassembly of section .text.exit:

00000650 <exit>:
 650:	ff010113          	addi	sp,sp,-16
 654:	00000593          	li	a1,0
 658:	00812423          	sw	s0,8(sp)
 65c:	00112623          	sw	ra,12(sp)
 660:	00050413          	mv	s0,a0
 664:	1d8000ef          	jal	ra,83c <__call_exitprocs>
 668:	00000517          	auipc	a0,0x0
 66c:	42452503          	lw	a0,1060(a0) # a8c <_global_impure_ptr>
 670:	03c52783          	lw	a5,60(a0)
 674:	00078463          	beqz	a5,67c <exit+0x2c>
 678:	000780e7          	jalr	a5
 67c:	00040513          	mv	a0,s0
 680:	c59ff0ef          	jal	ra,2d8 <_exit>

Disassembly of section .text.__libc_init_array:

00000684 <__libc_init_array>:
 684:	ff010113          	addi	sp,sp,-16
 688:	00812423          	sw	s0,8(sp)
 68c:	01212023          	sw	s2,0(sp)
 690:	00000413          	li	s0,0
 694:	00000913          	li	s2,0
 698:	40890933          	sub	s2,s2,s0
 69c:	00112623          	sw	ra,12(sp)
 6a0:	00912223          	sw	s1,4(sp)
 6a4:	40295913          	srai	s2,s2,0x2
 6a8:	00090e63          	beqz	s2,6c4 <__libc_init_array+0x40>
 6ac:	00000493          	li	s1,0
 6b0:	00042783          	lw	a5,0(s0)
 6b4:	00148493          	addi	s1,s1,1
 6b8:	00440413          	addi	s0,s0,4
 6bc:	000780e7          	jalr	a5
 6c0:	fe9918e3          	bne	s2,s1,6b0 <__libc_init_array+0x2c>
 6c4:	00000413          	li	s0,0
 6c8:	00000913          	li	s2,0
 6cc:	40890933          	sub	s2,s2,s0
 6d0:	40295913          	srai	s2,s2,0x2
 6d4:	00090e63          	beqz	s2,6f0 <__libc_init_array+0x6c>
 6d8:	00000493          	li	s1,0
 6dc:	00042783          	lw	a5,0(s0)
 6e0:	00148493          	addi	s1,s1,1
 6e4:	00440413          	addi	s0,s0,4
 6e8:	000780e7          	jalr	a5
 6ec:	fe9918e3          	bne	s2,s1,6dc <__libc_init_array+0x58>
 6f0:	00c12083          	lw	ra,12(sp)
 6f4:	00812403          	lw	s0,8(sp)
 6f8:	00412483          	lw	s1,4(sp)
 6fc:	00012903          	lw	s2,0(sp)
 700:	01010113          	addi	sp,sp,16
 704:	00008067          	ret

Disassembly of section .text.memcpy:

00000708 <memcpy>:
 708:	00a5c7b3          	xor	a5,a1,a0
 70c:	0037f793          	andi	a5,a5,3
 710:	00c508b3          	add	a7,a0,a2
 714:	06079263          	bnez	a5,778 <memcpy+0x70>
 718:	00300793          	li	a5,3
 71c:	04c7fe63          	bgeu	a5,a2,778 <memcpy+0x70>
 720:	00357793          	andi	a5,a0,3
 724:	00050713          	mv	a4,a0
 728:	06079863          	bnez	a5,798 <memcpy+0x90>
 72c:	ffc8f613          	andi	a2,a7,-4
 730:	fe060793          	addi	a5,a2,-32
 734:	08f76c63          	bltu	a4,a5,7cc <memcpy+0xc4>
 738:	02c77c63          	bgeu	a4,a2,770 <memcpy+0x68>
 73c:	00058693          	mv	a3,a1
 740:	00070793          	mv	a5,a4
 744:	0006a803          	lw	a6,0(a3)
 748:	00478793          	addi	a5,a5,4
 74c:	00468693          	addi	a3,a3,4
 750:	ff07ae23          	sw	a6,-4(a5)
 754:	fec7e8e3          	bltu	a5,a2,744 <memcpy+0x3c>
 758:	fff60793          	addi	a5,a2,-1
 75c:	40e787b3          	sub	a5,a5,a4
 760:	ffc7f793          	andi	a5,a5,-4
 764:	00478793          	addi	a5,a5,4
 768:	00f70733          	add	a4,a4,a5
 76c:	00f585b3          	add	a1,a1,a5
 770:	01176863          	bltu	a4,a7,780 <memcpy+0x78>
 774:	00008067          	ret
 778:	00050713          	mv	a4,a0
 77c:	ff157ce3          	bgeu	a0,a7,774 <memcpy+0x6c>
 780:	0005c783          	lbu	a5,0(a1)
 784:	00170713          	addi	a4,a4,1
 788:	00158593          	addi	a1,a1,1
 78c:	fef70fa3          	sb	a5,-1(a4)
 790:	ff1768e3          	bltu	a4,a7,780 <memcpy+0x78>
 794:	00008067          	ret
 798:	0005c683          	lbu	a3,0(a1)
 79c:	00170713          	addi	a4,a4,1
 7a0:	00377793          	andi	a5,a4,3
 7a4:	fed70fa3          	sb	a3,-1(a4)
 7a8:	00158593          	addi	a1,a1,1
 7ac:	f80780e3          	beqz	a5,72c <memcpy+0x24>
 7b0:	0005c683          	lbu	a3,0(a1)
 7b4:	00170713          	addi	a4,a4,1
 7b8:	00377793          	andi	a5,a4,3
 7bc:	fed70fa3          	sb	a3,-1(a4)
 7c0:	00158593          	addi	a1,a1,1
 7c4:	fc079ae3          	bnez	a5,798 <memcpy+0x90>
 7c8:	f65ff06f          	j	72c <memcpy+0x24>
 7cc:	0045a683          	lw	a3,4(a1)
 7d0:	0005a283          	lw	t0,0(a1)
 7d4:	0085af83          	lw	t6,8(a1)
 7d8:	00c5af03          	lw	t5,12(a1)
 7dc:	0105ae83          	lw	t4,16(a1)
 7e0:	0145ae03          	lw	t3,20(a1)
 7e4:	0185a303          	lw	t1,24(a1)
 7e8:	01c5a803          	lw	a6,28(a1)
 7ec:	00d72223          	sw	a3,4(a4)
 7f0:	0205a683          	lw	a3,32(a1)
 7f4:	00572023          	sw	t0,0(a4)
 7f8:	01f72423          	sw	t6,8(a4)
 7fc:	01e72623          	sw	t5,12(a4)
 800:	01d72823          	sw	t4,16(a4)
 804:	01c72a23          	sw	t3,20(a4)
 808:	00672c23          	sw	t1,24(a4)
 80c:	01072e23          	sw	a6,28(a4)
 810:	02d72023          	sw	a3,32(a4)
 814:	02470713          	addi	a4,a4,36
 818:	02458593          	addi	a1,a1,36
 81c:	faf768e3          	bltu	a4,a5,7cc <memcpy+0xc4>
 820:	f19ff06f          	j	738 <memcpy+0x30>

Disassembly of section .text.startup.register_fini:

00000824 <register_fini>:
 824:	00000793          	li	a5,0
 828:	00078863          	beqz	a5,838 <register_fini+0x14>
 82c:	00000517          	auipc	a0,0x0
 830:	13450513          	addi	a0,a0,308 # 960 <__libc_fini_array>
 834:	1800006f          	j	9b4 <atexit>
 838:	00008067          	ret

Disassembly of section .text.__call_exitprocs:

0000083c <__call_exitprocs>:
 83c:	fd010113          	addi	sp,sp,-48
 840:	01412c23          	sw	s4,24(sp)
 844:	00000a17          	auipc	s4,0x0
 848:	248a2a03          	lw	s4,584(s4) # a8c <_global_impure_ptr>
 84c:	03212023          	sw	s2,32(sp)
 850:	148a2903          	lw	s2,328(s4)
 854:	02112623          	sw	ra,44(sp)
 858:	02812423          	sw	s0,40(sp)
 85c:	02912223          	sw	s1,36(sp)
 860:	01312e23          	sw	s3,28(sp)
 864:	01512a23          	sw	s5,20(sp)
 868:	01612823          	sw	s6,16(sp)
 86c:	01712623          	sw	s7,12(sp)
 870:	01812423          	sw	s8,8(sp)
 874:	04090063          	beqz	s2,8b4 <__call_exitprocs+0x78>
 878:	00050b13          	mv	s6,a0
 87c:	00058b93          	mv	s7,a1
 880:	00100a93          	li	s5,1
 884:	fff00993          	li	s3,-1
 888:	00492483          	lw	s1,4(s2)
 88c:	fff48413          	addi	s0,s1,-1
 890:	02044263          	bltz	s0,8b4 <__call_exitprocs+0x78>
 894:	00249493          	slli	s1,s1,0x2
 898:	009904b3          	add	s1,s2,s1
 89c:	040b8463          	beqz	s7,8e4 <__call_exitprocs+0xa8>
 8a0:	1044a783          	lw	a5,260(s1)
 8a4:	05778063          	beq	a5,s7,8e4 <__call_exitprocs+0xa8>
 8a8:	fff40413          	addi	s0,s0,-1
 8ac:	ffc48493          	addi	s1,s1,-4
 8b0:	ff3416e3          	bne	s0,s3,89c <__call_exitprocs+0x60>
 8b4:	02c12083          	lw	ra,44(sp)
 8b8:	02812403          	lw	s0,40(sp)
 8bc:	02412483          	lw	s1,36(sp)
 8c0:	02012903          	lw	s2,32(sp)
 8c4:	01c12983          	lw	s3,28(sp)
 8c8:	01812a03          	lw	s4,24(sp)
 8cc:	01412a83          	lw	s5,20(sp)
 8d0:	01012b03          	lw	s6,16(sp)
 8d4:	00c12b83          	lw	s7,12(sp)
 8d8:	00812c03          	lw	s8,8(sp)
 8dc:	03010113          	addi	sp,sp,48
 8e0:	00008067          	ret
 8e4:	00492783          	lw	a5,4(s2)
 8e8:	0044a683          	lw	a3,4(s1)
 8ec:	fff78793          	addi	a5,a5,-1
 8f0:	04878e63          	beq	a5,s0,94c <__call_exitprocs+0x110>
 8f4:	0004a223          	sw	zero,4(s1)
 8f8:	fa0688e3          	beqz	a3,8a8 <__call_exitprocs+0x6c>
 8fc:	18892783          	lw	a5,392(s2)
 900:	008a9733          	sll	a4,s5,s0
 904:	00492c03          	lw	s8,4(s2)
 908:	00f777b3          	and	a5,a4,a5
 90c:	02079263          	bnez	a5,930 <__call_exitprocs+0xf4>
 910:	000680e7          	jalr	a3
 914:	00492703          	lw	a4,4(s2)
 918:	148a2783          	lw	a5,328(s4)
 91c:	01871463          	bne	a4,s8,924 <__call_exitprocs+0xe8>
 920:	f92784e3          	beq	a5,s2,8a8 <__call_exitprocs+0x6c>
 924:	f80788e3          	beqz	a5,8b4 <__call_exitprocs+0x78>
 928:	00078913          	mv	s2,a5
 92c:	f5dff06f          	j	888 <__call_exitprocs+0x4c>
 930:	18c92783          	lw	a5,396(s2)
 934:	0844a583          	lw	a1,132(s1)
 938:	00f77733          	and	a4,a4,a5
 93c:	00071c63          	bnez	a4,954 <__call_exitprocs+0x118>
 940:	000b0513          	mv	a0,s6
 944:	000680e7          	jalr	a3
 948:	fcdff06f          	j	914 <__call_exitprocs+0xd8>
 94c:	00892223          	sw	s0,4(s2)
 950:	fa9ff06f          	j	8f8 <__call_exitprocs+0xbc>
 954:	00058513          	mv	a0,a1
 958:	000680e7          	jalr	a3
 95c:	fb9ff06f          	j	914 <__call_exitprocs+0xd8>

Disassembly of section .text.__libc_fini_array:

00000960 <__libc_fini_array>:
 960:	ff010113          	addi	sp,sp,-16
 964:	00812423          	sw	s0,8(sp)
 968:	00000793          	li	a5,0
 96c:	00000413          	li	s0,0
 970:	408787b3          	sub	a5,a5,s0
 974:	00912223          	sw	s1,4(sp)
 978:	00112623          	sw	ra,12(sp)
 97c:	4027d493          	srai	s1,a5,0x2
 980:	02048063          	beqz	s1,9a0 <__libc_fini_array+0x40>
 984:	ffc78793          	addi	a5,a5,-4
 988:	00878433          	add	s0,a5,s0
 98c:	00042783          	lw	a5,0(s0)
 990:	fff48493          	addi	s1,s1,-1
 994:	ffc40413          	addi	s0,s0,-4
 998:	000780e7          	jalr	a5
 99c:	fe0498e3          	bnez	s1,98c <__libc_fini_array+0x2c>
 9a0:	00c12083          	lw	ra,12(sp)
 9a4:	00812403          	lw	s0,8(sp)
 9a8:	00412483          	lw	s1,4(sp)
 9ac:	01010113          	addi	sp,sp,16
 9b0:	00008067          	ret

Disassembly of section .text.atexit:

000009b4 <atexit>:
 9b4:	00050593          	mv	a1,a0
 9b8:	00000693          	li	a3,0
 9bc:	00000613          	li	a2,0
 9c0:	00000513          	li	a0,0
 9c4:	0040006f          	j	9c8 <__register_exitproc>

Disassembly of section .text.__register_exitproc:

000009c8 <__register_exitproc>:
 9c8:	00000717          	auipc	a4,0x0
 9cc:	0c472703          	lw	a4,196(a4) # a8c <_global_impure_ptr>
 9d0:	14872783          	lw	a5,328(a4)
 9d4:	04078c63          	beqz	a5,a2c <__register_exitproc+0x64>
 9d8:	0047a703          	lw	a4,4(a5)
 9dc:	01f00813          	li	a6,31
 9e0:	06e84e63          	blt	a6,a4,a5c <__register_exitproc+0x94>
 9e4:	00271813          	slli	a6,a4,0x2
 9e8:	02050663          	beqz	a0,a14 <__register_exitproc+0x4c>
 9ec:	01078333          	add	t1,a5,a6
 9f0:	08c32423          	sw	a2,136(t1) # 4dc <trap_entry+0x7c>
 9f4:	1887a883          	lw	a7,392(a5)
 9f8:	00100613          	li	a2,1
 9fc:	00e61633          	sll	a2,a2,a4
 a00:	00c8e8b3          	or	a7,a7,a2
 a04:	1917a423          	sw	a7,392(a5)
 a08:	10d32423          	sw	a3,264(t1)
 a0c:	00200693          	li	a3,2
 a10:	02d50463          	beq	a0,a3,a38 <__register_exitproc+0x70>
 a14:	00170713          	addi	a4,a4,1
 a18:	00e7a223          	sw	a4,4(a5)
 a1c:	010787b3          	add	a5,a5,a6
 a20:	00b7a423          	sw	a1,8(a5)
 a24:	00000513          	li	a0,0
 a28:	00008067          	ret
 a2c:	14c70793          	addi	a5,a4,332
 a30:	14f72423          	sw	a5,328(a4)
 a34:	fa5ff06f          	j	9d8 <__register_exitproc+0x10>
 a38:	18c7a683          	lw	a3,396(a5)
 a3c:	00170713          	addi	a4,a4,1
 a40:	00e7a223          	sw	a4,4(a5)
 a44:	00c6e633          	or	a2,a3,a2
 a48:	18c7a623          	sw	a2,396(a5)
 a4c:	010787b3          	add	a5,a5,a6
 a50:	00b7a423          	sw	a1,8(a5)
 a54:	00000513          	li	a0,0
 a58:	00008067          	ret
 a5c:	fff00513          	li	a0,-1
 a60:	00008067          	ret
