
main.elf:     file format elf32-littleriscv

Sections:
Idx Name          Size      VMA       LMA       File off  Algn
  0 .rom          0000034f  00000000  00000000  00001000  2+ACoAKg-2
                  CONTENTS, ALLOC, LOAD, READONLY, CODE
  1 .text.deregister+AF8-tm+AF8-clones 0000001c  00000350  00000350  00001350  2+ACoAKg-2
                  CONTENTS, ALLOC, LOAD, READONLY, CODE
  2 .text.register+AF8-tm+AF8-clones 00000030  0000036c  0000036c  0000136c  2+ACoAKg-2
                  CONTENTS, ALLOC, LOAD, READONLY, CODE
  3 .text.+AF8AXw-do+AF8-global+AF8-dtors+AF8-aux 00000048  0000039c  0000039c  0000139c  2+ACoAKg-2
                  CONTENTS, ALLOC, LOAD, READONLY, CODE
  4 .text.frame+AF8-dummy 00000030  000003e4  000003e4  000013e4  2+ACoAKg-2
                  CONTENTS, ALLOC, LOAD, READONLY, CODE
  5 .text.trap    000000c8  00000414  00000414  00001414  2+ACoAKg-2
                  CONTENTS, ALLOC, LOAD, READONLY, CODE
  6 .text.irq     000000a8  000004dc  000004dc  000014dc  2+ACoAKg-2
                  CONTENTS, ALLOC, LOAD, READONLY, CODE
  7 .init         00000084  00000584  00000584  00001584  2+ACoAKg-2
                  CONTENTS, ALLOC, LOAD, READONLY, CODE
  8 .text.atexit  00000014  00000608  00000608  00001608  2+ACoAKg-2
                  CONTENTS, ALLOC, LOAD, READONLY, CODE
  9 .text.+AF8AXw-errno 00000008  0000061c  0000061c  0000161c  2+ACoAKg-2
                  CONTENTS, ALLOC, LOAD, READONLY, CODE
 10 .text.exit    00000034  00000624  00000624  00001624  2+ACoAKg-2
                  CONTENTS, ALLOC, LOAD, READONLY, CODE
 11 .text.+AF8AXw-libc+AF8-fini+AF8-array 00000054  00000658  00000658  00001658  2+ACoAKg-2
                  CONTENTS, ALLOC, LOAD, READONLY, CODE
 12 .text.+AF8AXw-libc+AF8-init+AF8-array 00000084  000006ac  000006ac  000016ac  2+ACoAKg-2
                  CONTENTS, ALLOC, LOAD, READONLY, CODE
 13 .text.memcpy  00000128  00000730  00000730  00001730  2+ACoAKg-2
                  CONTENTS, ALLOC, LOAD, READONLY, CODE
 14 .text.+AF8AXw-register+AF8-exitproc 0000009c  00000858  00000858  00001858  2+ACoAKg-2
                  CONTENTS, ALLOC, LOAD, READONLY, CODE
 15 .text.+AF8AXw-call+AF8-exitprocs 00000124  000008f4  000008f4  000018f4  2+ACoAKg-2
                  CONTENTS, ALLOC, LOAD, READONLY, CODE
 16 .srodata.+AF8-global+AF8-impure+AF8-ptr 00000004  00000a18  00000a18  00001a18  2+ACoAKg-2
                  CONTENTS, ALLOC, LOAD, READONLY, DATA
 17 .data         00000430  02000000  00000a1c  00002000  2+ACoAKg-3
                  CONTENTS, ALLOC, LOAD, DATA
 18 .eh+AF8-frame     00000120  02000430  00000e4c  00002430  2+ACoAKg-2
                  CONTENTS, ALLOC, LOAD, DATA
 19 .fini+AF8-array   00000004  02000550  00000f6c  00002550  2+ACoAKg-2
                  CONTENTS, ALLOC, LOAD, DATA
 20 .init+AF8-array   00000004  02000554  00000f70  00002554  2+ACoAKg-2
                  CONTENTS, ALLOC, LOAD, DATA
 21 .bss          00000018  02000558  00000f74  00002558  2+ACoAKg-2
                  ALLOC
 22 .sbss.completed.1 00000001  02000570  00000f74  00002570  2+ACoAKg-0
                  ALLOC
 23 .sbss         00000004  02000574  00000f74  00002574  2+ACoAKg-2
                  ALLOC
 24 .riscv.attributes 00000025  00000000  00000000  00002558  2+ACoAKg-0
                  CONTENTS, READONLY
 25 .comment      00000033  00000000  00000000  0000257d  2+ACoAKg-0
                  CONTENTS, READONLY

Disassembly of section .rom:

00000000 +ADwAXw-pvstart+AD4-:
   0:	30047073          	csrci	mstatus,8
   4:	00000297          	auipc	t0,0x0
   8:	58028293          	addi	t0,t0,1408 +ACM- 584 +ADw-vector+AF8-base+AD4-
   c:	30729073          	csrw	0x307,t0
  10:	00000297          	auipc	t0,0x0
  14:	4cc28293          	addi	t0,t0,1228 +ACM- 4dc +ADw-irq+AF8-entry+AD4-
  18:	7ec29073          	csrw	0x7ec,t0
  1c:	7ec0e073          	csrsi	0x7ec,1
  20:	00000297          	auipc	t0,0x0
  24:	3f428293          	addi	t0,t0,1012 +ACM- 414 +ADw-trap+AF8-entry+AD4-
  28:	30529073          	csrw	mtvec,t0
  2c:	02001137          	lui	sp,0x2001
  30:	80010113          	addi	sp,sp,-2048 +ACM- 2000800 +ADw-heap+AF8-end.0+-0x28c+AD4-
  34:	020001b7          	lui	gp,0x2000
  38:	00018193          	mv	gp,gp
  3c:	ff010113          	addi	sp,sp,-16
  40:	00012023          	sw	zero,0(sp)
  44:	00012223          	sw	zero,4(sp)
  48:	00012423          	sw	zero,8(sp)
  4c:	00012623          	sw	zero,12(sp)
  50:	048000ef          	jal	ra,98 +ADw-main+AD4-
  54:	00100073          	ebreak

00000058 +ADwAXw-start+AD4-:
  58:	02000197          	auipc	gp,0x2000
  5c:	fa818193          	addi	gp,gp,-88 +ACM- 2000000 +ADw-impure+AF8-data+AD4-
  60:	55818513          	addi	a0,gp,1368 +ACM- 2000558 +ADw-object.0+AD4-
  64:	57018613          	addi	a2,gp,1392 +ACM- 2000570 +ADw-completed.1+AD4-
  68:	40a60633          	sub	a2,a2,a0
  6c:	00000593          	li	a1,0
  70:	1e0000ef          	jal	ra,250 +ADw-memset+AD4-
  74:	00000517          	auipc	a0,0x0
  78:	5e450513          	addi	a0,a0,1508 +ACM- 658 +ADwAXwBf-libc+AF8-fini+AF8-array+AD4-
  7c:	58c000ef          	jal	ra,608 +ADw-atexit+AD4-
  80:	62c000ef          	jal	ra,6ac +ADwAXwBf-libc+AF8-init+AF8-array+AD4-
  84:	00012503          	lw	a0,0(sp)
  88:	00410593          	addi	a1,sp,4
  8c:	00000613          	li	a2,0
  90:	008000ef          	jal	ra,98 +ADw-main+AD4-
  94:	5900006f          	j	624 +ADw-exit+AD4-

00000098 +ADw-main+AD4-:
  98:	ff010113          	addi	sp,sp,-16
  9c:	00112623          	sw	ra,12(sp)
  a0:	00812423          	sw	s0,8(sp)
  a4:	00912223          	sw	s1,4(sp)
  a8:	01212023          	sw	s2,0(sp)
  ac:	00000413          	li	s0,0
  b0:	040004b7          	lui	s1,0x4000
  b4:	00002937          	lui	s2,0x2
  b8:	71090913          	addi	s2,s2,1808 +ACM- 2710 +ADwAXw-data+AF8-lma+-0x1cf4+AD4-
  bc:	0004a783          	lw	a5,0(s1) +ACM- 4000000 +ADw-heap+AF8-end.0+-0x1fffa8c+AD4-
  c0:	0017b793          	seqz	a5,a5
  c4:	40f007b3          	neg	a5,a5
  c8:	00f47433          	and	s0,s0,a5
  cc:	0084a223          	sw	s0,4(s1)
  d0:	0484a023          	sw	s0,64(s1)
  d4:	00090513          	mv	a0,s2
  d8:	168000ef          	jal	ra,240 +ADw-delay+AF8APg-
  dc:	00140413          	addi	s0,s0,1
  e0:	fddff06f          	j	bc +ADw-main+-0x24+AD4-

000000e4 +ADw-input+AF8-interrupt+AF8-enable+AD4-:
  e4:	04000737          	lui	a4,0x4000
  e8:	00872783          	lw	a5,8(a4) +ACM- 4000008 +ADw-heap+AF8-end.0+-0x1fffa94+AD4-
  ec:	00a7e7b3          	or	a5,a5,a0
  f0:	00f72423          	sw	a5,8(a4)
  f4:	00059e63          	bnez	a1,110 +ADw-input+AF8-interrupt+AF8-enable+-0x2c+AD4-
  f8:	040007b7          	lui	a5,0x4000
  fc:	00c7a703          	lw	a4,12(a5) +ACM- 400000c +ADw-heap+AF8-end.0+-0x1fffa98+AD4-
 100:	fff54513          	not	a0,a0
 104:	00e57533          	and	a0,a0,a4
 108:	00a7a623          	sw	a0,12(a5)
 10c:	00008067          	ret
 110:	04000737          	lui	a4,0x4000
 114:	00c72783          	lw	a5,12(a4) +ACM- 400000c +ADw-heap+AF8-end.0+-0x1fffa98+AD4-
 118:	00a7e7b3          	or	a5,a5,a0
 11c:	00f72623          	sw	a5,12(a4)
 120:	00008067          	ret

00000124 +ADw-global+AF8-interrupt+AF8-enable+AD4-:
 124:	00050663          	beqz	a0,130 +ADw-global+AF8-interrupt+AF8-enable+-0xc+AD4-
 128:	30046073          	csrsi	mstatus,8
 12c:	00008067          	ret
 130:	30047073          	csrci	mstatus,8
 134:	00008067          	ret

00000138 +ADw-extern+AF8-interrupt+AF8-enable+AD4-:
 138:	000012b7          	lui	t0,0x1
 13c:	80028293          	addi	t0,t0,-2048 +ACM- 800 +ADw-memcpy+-0xd0+AD4-
 140:	00050663          	beqz	a0,14c +ADw-extern+AF8-interrupt+AF8-enable+-0x14+AD4-
 144:	3042a073          	csrs	mie,t0
 148:	00008067          	ret
 14c:	3042b073          	csrc	mie,t0
 150:	00008067          	ret

00000154 +ADw-timer+AF8-interrupt+AF8-enable+AD4-:
 154:	08000293          	li	t0,128
 158:	00050663          	beqz	a0,164 +ADw-timer+AF8-interrupt+AF8-enable+-0x10+AD4-
 15c:	3042a073          	csrs	mie,t0
 160:	00008067          	ret
 164:	3042b073          	csrc	mie,t0
 168:	00008067          	ret

0000016c +ADwAXw-access+AD4-:
 16c:	0040006f          	j	170 +ADw-unimplemented+AF8-syscall+AD4-

00000170 +ADw-unimplemented+AF8-syscall+AD4-:
 170:	32c00793          	li	a5,812
 174:	05500713          	li	a4,85
 178:	100006b7          	lui	a3,0x10000
 17c:	00178793          	addi	a5,a5,1
 180:	00e6a023          	sw	a4,0(a3) +ACM- 10000000 +ADw-heap+AF8-end.0+-0xdfffa8c+AD4-
 184:	0007c703          	lbu	a4,0(a5)
 188:	fe071ae3          	bnez	a4,17c +ADw-unimplemented+AF8-syscall+-0xc+AD4-
 18c:	00100073          	ebreak

00000190 +ADwAXw-read+AD4-:
 190:	00000513          	li	a0,0
 194:	00008067          	ret

00000198 +ADwAXw-write+AD4-:
 198:	00060513          	mv	a0,a2
 19c:	00c58733          	add	a4,a1,a2
 1a0:	00e58c63          	beq	a1,a4,1b8 +ADwAXw-write+-0x20+AD4-
 1a4:	100006b7          	lui	a3,0x10000
 1a8:	00158593          	addi	a1,a1,1
 1ac:	fff5c783          	lbu	a5,-1(a1)
 1b0:	00f6a023          	sw	a5,0(a3) +ACM- 10000000 +ADw-heap+AF8-end.0+-0xdfffa8c+AD4-
 1b4:	feb71ae3          	bne	a4,a1,1a8 +ADwAXw-write+-0x10+AD4-
 1b8:	00008067          	ret

000001bc +ADwAXw-close+AD4-:
 1bc:	00000513          	li	a0,0
 1c0:	00008067          	ret

000001c4 +ADwAXw-fstat+AD4-:
 1c4:	ff010113          	addi	sp,sp,-16
 1c8:	00112623          	sw	ra,12(sp)
 1cc:	450000ef          	jal	ra,61c +ADwAXwBf-errno+AD4-
 1d0:	00200793          	li	a5,2
 1d4:	00f52023          	sw	a5,0(a0)
 1d8:	fff00513          	li	a0,-1
 1dc:	00c12083          	lw	ra,12(sp)
 1e0:	01010113          	addi	sp,sp,16
 1e4:	00008067          	ret

000001e8 +ADwAXw-sbrk+AD4-:
 1e8:	00050793          	mv	a5,a0
 1ec:	5741a703          	lw	a4,1396(gp) +ACM- 2000574 +ADw-heap+AF8-end.0+AD4-
 1f0:	00071663          	bnez	a4,1fc +ADwAXw-sbrk+-0x14+AD4-
 1f4:	57018713          	addi	a4,gp,1392 +ACM- 2000570 +ADw-completed.1+AD4-
 1f8:	56e1aa23          	sw	a4,1396(gp) +ACM- 2000574 +ADw-heap+AF8-end.0+AD4-
 1fc:	5741a503          	lw	a0,1396(gp) +ACM- 2000574 +ADw-heap+AF8-end.0+AD4-
 200:	00a787b3          	add	a5,a5,a0
 204:	56f1aa23          	sw	a5,1396(gp) +ACM- 2000574 +ADw-heap+AF8-end.0+AD4-
 208:	00008067          	ret

0000020c +ADwAXw-exit+AD4-:
 20c:	00100073          	ebreak

00000210 +ADw-init+AF8-data+AF8-section+AD4-:
 210:	ff010113          	addi	sp,sp,-16
 214:	00112623          	sw	ra,12(sp)
 218:	00018613          	mv	a2,gp
 21c:	43018793          	addi	a5,gp,1072 +ACM- 2000430 +ADwAXwBf-EH+AF8-FRAME+AF8-BEGIN+AF8AXwA+-
 220:	40c78633          	sub	a2,a5,a2
 224:	000015b7          	lui	a1,0x1
 228:	a1c58593          	addi	a1,a1,-1508 +ACM- a1c +ADwAXw-data+AF8-lma+AD4-
 22c:	00018513          	mv	a0,gp
 230:	500000ef          	jal	ra,730 +ADw-memcpy+AD4-
 234:	00c12083          	lw	ra,12(sp)
 238:	01010113          	addi	sp,sp,16
 23c:	00008067          	ret

00000240 +ADw-delay+AF8APg-:
 240:	fff00793          	li	a5,-1
 244:	fff50513          	addi	a0,a0,-1
 248:	fef51ee3          	bne	a0,a5,244 +ADw-delay+AF8AKw-0x4+AD4-
 24c:	00008067          	ret

00000250 +ADw-memset+AD4-:
 250:	00f00313          	li	t1,15
 254:	00050713          	mv	a4,a0
 258:	02c37e63          	bgeu	t1,a2,294 +ADw-memset+-0x44+AD4-
 25c:	00f77793          	andi	a5,a4,15
 260:	0a079063          	bnez	a5,300 +ADw-memset+-0xb0+AD4-
 264:	08059263          	bnez	a1,2e8 +ADw-memset+-0x98+AD4-
 268:	ff067693          	andi	a3,a2,-16
 26c:	00f67613          	andi	a2,a2,15
 270:	00e686b3          	add	a3,a3,a4
 274:	00b72023          	sw	a1,0(a4)
 278:	00b72223          	sw	a1,4(a4)
 27c:	00b72423          	sw	a1,8(a4)
 280:	00b72623          	sw	a1,12(a4)
 284:	01070713          	addi	a4,a4,16
 288:	fed766e3          	bltu	a4,a3,274 +ADw-memset+-0x24+AD4-
 28c:	00061463          	bnez	a2,294 +ADw-memset+-0x44+AD4-
 290:	00008067          	ret
 294:	40c306b3          	sub	a3,t1,a2
 298:	00269693          	slli	a3,a3,0x2
 29c:	00000297          	auipc	t0,0x0
 2a0:	005686b3          	add	a3,a3,t0
 2a4:	00c68067          	jr	12(a3)
 2a8:	00b70723          	sb	a1,14(a4)
 2ac:	00b706a3          	sb	a1,13(a4)
 2b0:	00b70623          	sb	a1,12(a4)
 2b4:	00b705a3          	sb	a1,11(a4)
 2b8:	00b70523          	sb	a1,10(a4)
 2bc:	00b704a3          	sb	a1,9(a4)
 2c0:	00b70423          	sb	a1,8(a4)
 2c4:	00b703a3          	sb	a1,7(a4)
 2c8:	00b70323          	sb	a1,6(a4)
 2cc:	00b702a3          	sb	a1,5(a4)
 2d0:	00b70223          	sb	a1,4(a4)
 2d4:	00b701a3          	sb	a1,3(a4)
 2d8:	00b70123          	sb	a1,2(a4)
 2dc:	00b700a3          	sb	a1,1(a4)
 2e0:	00b70023          	sb	a1,0(a4)
 2e4:	00008067          	ret
 2e8:	0ff5f593          	zext.b	a1,a1
 2ec:	00859693          	slli	a3,a1,0x8
 2f0:	00d5e5b3          	or	a1,a1,a3
 2f4:	01059693          	slli	a3,a1,0x10
 2f8:	00d5e5b3          	or	a1,a1,a3
 2fc:	f6dff06f          	j	268 +ADw-memset+-0x18+AD4-
 300:	00279693          	slli	a3,a5,0x2
 304:	00000297          	auipc	t0,0x0
 308:	005686b3          	add	a3,a3,t0
 30c:	00008293          	mv	t0,ra
 310:	fa0680e7          	jalr	-96(a3)
 314:	00028093          	mv	ra,t0
 318:	ff078793          	addi	a5,a5,-16
 31c:	40f70733          	sub	a4,a4,a5
 320:	00f60633          	add	a2,a2,a5
 324:	f6c378e3          	bgeu	t1,a2,294 +ADw-memset+-0x44+AD4-
 328:	f3dff06f          	j	264 +ADw-memset+-0x14+AD4-
 32c:	6e55                	.2byte	0x6e55
 32e:	6d69                	.2byte	0x6d69
 330:	6c70                	.2byte	0x6c70
 332:	6d65                	.2byte	0x6d65
 334:	6e65                	.2byte	0x6e65
 336:	6574                	.2byte	0x6574
 338:	2064                	.2byte	0x2064
 33a:	74737973          	csrrci	s2,0x747,6
 33e:	6d65                	.2byte	0x6d65
 340:	6320                	.2byte	0x6320
 342:	6c61                	.2byte	0x6c61
 344:	206c                	.2byte	0x206c
 346:	6c6c6163          	bltu	s8,t1,a08 +ADwAXwBf-call+AF8-exitprocs+-0x114+AD4-
 34a:	6465                	.2byte	0x6465
 34c:	0a21                	.2byte	0xa21
	...

Disassembly of section .text.deregister+AF8-tm+AF8-clones:

00000350 +ADw-deregister+AF8-tm+AF8-clones+AD4-:
 350:	55018513          	addi	a0,gp,1360 +ACM- 2000550 +ADwAXwBf-TMC+AF8-END+AF8AXwA+-
 354:	55018793          	addi	a5,gp,1360 +ACM- 2000550 +ADwAXwBf-TMC+AF8-END+AF8AXwA+-
 358:	00a78863          	beq	a5,a0,368 +ADw-deregister+AF8-tm+AF8-clones+-0x18+AD4-
 35c:	00000793          	li	a5,0
 360:	00078463          	beqz	a5,368 +ADw-deregister+AF8-tm+AF8-clones+-0x18+AD4-
 364:	00078067          	jr	a5
 368:	00008067          	ret

Disassembly of section .text.register+AF8-tm+AF8-clones:

0000036c +ADw-register+AF8-tm+AF8-clones+AD4-:
 36c:	55018513          	addi	a0,gp,1360 +ACM- 2000550 +ADwAXwBf-TMC+AF8-END+AF8AXwA+-
 370:	55018593          	addi	a1,gp,1360 +ACM- 2000550 +ADwAXwBf-TMC+AF8-END+AF8AXwA+-
 374:	40a585b3          	sub	a1,a1,a0
 378:	4025d793          	srai	a5,a1,0x2
 37c:	01f5d593          	srli	a1,a1,0x1f
 380:	00f585b3          	add	a1,a1,a5
 384:	4015d593          	srai	a1,a1,0x1
 388:	00058863          	beqz	a1,398 +ADw-register+AF8-tm+AF8-clones+-0x2c+AD4-
 38c:	00000793          	li	a5,0
 390:	00078463          	beqz	a5,398 +ADw-register+AF8-tm+AF8-clones+-0x2c+AD4-
 394:	00078067          	jr	a5
 398:	00008067          	ret

Disassembly of section .text.+AF8AXw-do+AF8-global+AF8-dtors+AF8-aux:

0000039c +ADwAXwBf-do+AF8-global+AF8-dtors+AF8-aux+AD4-:
 39c:	ff010113          	addi	sp,sp,-16
 3a0:	00812423          	sw	s0,8(sp)
 3a4:	57018413          	addi	s0,gp,1392 +ACM- 2000570 +ADw-completed.1+AD4-
 3a8:	00044783          	lbu	a5,0(s0)
 3ac:	00112623          	sw	ra,12(sp)
 3b0:	02079263          	bnez	a5,3d4 +ADwAXwBf-do+AF8-global+AF8-dtors+AF8-aux+-0x38+AD4-
 3b4:	f9dff0ef          	jal	ra,350 +ADw-deregister+AF8-tm+AF8-clones+AD4-
 3b8:	00000793          	li	a5,0
 3bc:	00078863          	beqz	a5,3cc +ADwAXwBf-do+AF8-global+AF8-dtors+AF8-aux+-0x30+AD4-
 3c0:	43018513          	addi	a0,gp,1072 +ACM- 2000430 +ADwAXwBf-EH+AF8-FRAME+AF8-BEGIN+AF8AXwA+-
 3c4:	00000097          	auipc	ra,0x0
 3c8:	000000e7          	jalr	zero +ACM- 0 +ADwAXw-pvstart+AD4-
 3cc:	00100793          	li	a5,1
 3d0:	00f40023          	sb	a5,0(s0)
 3d4:	00c12083          	lw	ra,12(sp)
 3d8:	00812403          	lw	s0,8(sp)
 3dc:	01010113          	addi	sp,sp,16
 3e0:	00008067          	ret

Disassembly of section .text.frame+AF8-dummy:

000003e4 +ADw-frame+AF8-dummy+AD4-:
 3e4:	00000793          	li	a5,0
 3e8:	02078463          	beqz	a5,410 +ADw-frame+AF8-dummy+-0x2c+AD4-
 3ec:	ff010113          	addi	sp,sp,-16
 3f0:	55818593          	addi	a1,gp,1368 +ACM- 2000558 +ADw-object.0+AD4-
 3f4:	43018513          	addi	a0,gp,1072 +ACM- 2000430 +ADwAXwBf-EH+AF8-FRAME+AF8-BEGIN+AF8AXwA+-
 3f8:	00112623          	sw	ra,12(sp)
 3fc:	00000097          	auipc	ra,0x0
 400:	000000e7          	jalr	zero +ACM- 0 +ADwAXw-pvstart+AD4-
 404:	00c12083          	lw	ra,12(sp)
 408:	01010113          	addi	sp,sp,16
 40c:	f61ff06f          	j	36c +ADw-register+AF8-tm+AF8-clones+AD4-
 410:	f5dff06f          	j	36c +ADw-register+AF8-tm+AF8-clones+AD4-

Disassembly of section .text.trap:

00000414 +ADw-trap+AF8-entry+AD4-:
 414:	fb010113          	addi	sp,sp,-80
 418:	00112023          	sw	ra,0(sp)
 41c:	00412223          	sw	tp,4(sp)
 420:	00512423          	sw	t0,8(sp)
 424:	00612623          	sw	t1,12(sp)
 428:	00712823          	sw	t2,16(sp)
 42c:	00a12a23          	sw	a0,20(sp)
 430:	00b12c23          	sw	a1,24(sp)
 434:	00c12e23          	sw	a2,28(sp)
 438:	02d12023          	sw	a3,32(sp)
 43c:	02e12223          	sw	a4,36(sp)
 440:	02f12423          	sw	a5,40(sp)
 444:	03012623          	sw	a6,44(sp)
 448:	03112823          	sw	a7,48(sp)
 44c:	03c12a23          	sw	t3,52(sp)
 450:	03d12c23          	sw	t4,56(sp)
 454:	03e12e23          	sw	t5,60(sp)
 458:	05f12023          	sw	t6,64(sp)
 45c:	341022f3          	csrr	t0,mepc
 460:	04512023          	sw	t0,64(sp)
 464:	300022f3          	csrr	t0,mstatus
 468:	04512223          	sw	t0,68(sp)
 46c:	7c4022f3          	csrr	t0,0x7c4
 470:	04512423          	sw	t0,72(sp)
 474:	34202573          	csrr	a0,mcause
 478:	00010593          	mv	a1,sp
 47c:	04012283          	lw	t0,64(sp)
 480:	34129073          	csrw	mepc,t0
 484:	04412283          	lw	t0,68(sp)
 488:	30029073          	csrw	mstatus,t0
 48c:	04812283          	lw	t0,72(sp)
 490:	7c429073          	csrw	0x7c4,t0
 494:	00012083          	lw	ra,0(sp)
 498:	00412203          	lw	tp,4(sp)
 49c:	00812283          	lw	t0,8(sp)
 4a0:	00c12303          	lw	t1,12(sp)
 4a4:	01012383          	lw	t2,16(sp)
 4a8:	01412503          	lw	a0,20(sp)
 4ac:	01812583          	lw	a1,24(sp)
 4b0:	01c12603          	lw	a2,28(sp)
 4b4:	02012683          	lw	a3,32(sp)
 4b8:	02412703          	lw	a4,36(sp)
 4bc:	02812783          	lw	a5,40(sp)
 4c0:	02c12803          	lw	a6,44(sp)
 4c4:	03012883          	lw	a7,48(sp)
 4c8:	03412e03          	lw	t3,52(sp)
 4cc:	03812e83          	lw	t4,56(sp)
 4d0:	03c12f03          	lw	t5,60(sp)
 4d4:	05010113          	addi	sp,sp,80
 4d8:	30200073          	mret

Disassembly of section .text.irq:

000004dc +ADw-irq+AF8-entry+AD4-:
 4dc:	fb010113          	addi	sp,sp,-80
 4e0:	00112023          	sw	ra,0(sp)
 4e4:	00412223          	sw	tp,4(sp)
 4e8:	00512423          	sw	t0,8(sp)
 4ec:	00612623          	sw	t1,12(sp)
 4f0:	00712823          	sw	t2,16(sp)
 4f4:	00a12a23          	sw	a0,20(sp)
 4f8:	00b12c23          	sw	a1,24(sp)
 4fc:	00c12e23          	sw	a2,28(sp)
 500:	02d12023          	sw	a3,32(sp)
 504:	02e12223          	sw	a4,36(sp)
 508:	02f12423          	sw	a5,40(sp)
 50c:	03012623          	sw	a6,44(sp)
 510:	03112823          	sw	a7,48(sp)
 514:	03c12a23          	sw	t3,52(sp)
 518:	03d12c23          	sw	t4,56(sp)
 51c:	03e12e23          	sw	t5,60(sp)
 520:	05f12023          	sw	t6,64(sp)
 524:	34202673          	csrr	a2,mcause
 528:	30702773          	csrr	a4,0x307
 52c:	00261613          	slli	a2,a2,0x2
 530:	00c70733          	add	a4,a4,a2
 534:	00072703          	lw	a4,0(a4)
 538:	000700e7          	jalr	a4
 53c:	00012083          	lw	ra,0(sp)
 540:	00412203          	lw	tp,4(sp)
 544:	00812283          	lw	t0,8(sp)
 548:	00c12303          	lw	t1,12(sp)
 54c:	01012383          	lw	t2,16(sp)
 550:	01412503          	lw	a0,20(sp)
 554:	01812583          	lw	a1,24(sp)
 558:	01c12603          	lw	a2,28(sp)
 55c:	02012683          	lw	a3,32(sp)
 560:	02412703          	lw	a4,36(sp)
 564:	02812783          	lw	a5,40(sp)
 568:	02c12803          	lw	a6,44(sp)
 56c:	03012883          	lw	a7,48(sp)
 570:	03412e03          	lw	t3,52(sp)
 574:	03812e83          	lw	t4,56(sp)
 578:	03c12f03          	lw	t5,60(sp)
 57c:	05010113          	addi	sp,sp,80
 580:	30200073          	mret

Disassembly of section .init:

00000584 +ADw-vector+AF8-base+AD4-:
 584:	ad5ff06f          	j	58 +ADwAXw-start+AD4-
	...

Disassembly of section .text.atexit:

00000608 +ADw-atexit+AD4-:
 608:	00050593          	mv	a1,a0
 60c:	00000693          	li	a3,0
 610:	00000613          	li	a2,0
 614:	00000513          	li	a0,0
 618:	2400006f          	j	858 +ADwAXwBf-register+AF8-exitproc+AD4-

Disassembly of section .text.+AF8AXw-errno:

0000061c +ADwAXwBf-errno+AD4-:
 61c:	42c1a503          	lw	a0,1068(gp) +ACM- 200042c +ADwAXw-impure+AF8-ptr+AD4-
 620:	00008067          	ret

Disassembly of section .text.exit:

00000624 +ADw-exit+AD4-:
 624:	ff010113          	addi	sp,sp,-16
 628:	00000593          	li	a1,0
 62c:	00812423          	sw	s0,8(sp)
 630:	00112623          	sw	ra,12(sp)
 634:	00050413          	mv	s0,a0
 638:	2bc000ef          	jal	ra,8f4 +ADwAXwBf-call+AF8-exitprocs+AD4-
 63c:	00000517          	auipc	a0,0x0
 640:	3dc52503          	lw	a0,988(a0) +ACM- a18 +ADwAXw-global+AF8-impure+AF8-ptr+AD4-
 644:	03c52783          	lw	a5,60(a0)
 648:	00078463          	beqz	a5,650 +ADw-exit+-0x2c+AD4-
 64c:	000780e7          	jalr	a5
 650:	00040513          	mv	a0,s0
 654:	bb9ff0ef          	jal	ra,20c +ADwAXw-exit+AD4-

Disassembly of section .text.+AF8AXw-libc+AF8-fini+AF8-array:

00000658 +ADwAXwBf-libc+AF8-fini+AF8-array+AD4-:
 658:	ff010113          	addi	sp,sp,-16
 65c:	00812423          	sw	s0,8(sp)
 660:	00000793          	li	a5,0
 664:	00000413          	li	s0,0
 668:	40f40433          	sub	s0,s0,a5
 66c:	00912223          	sw	s1,4(sp)
 670:	00112623          	sw	ra,12(sp)
 674:	40245493          	srai	s1,s0,0x2
 678:	02048063          	beqz	s1,698 +ADwAXwBf-libc+AF8-fini+AF8-array+-0x40+AD4-
 67c:	ffc40413          	addi	s0,s0,-4
 680:	00f40433          	add	s0,s0,a5
 684:	00042783          	lw	a5,0(s0)
 688:	fff48493          	addi	s1,s1,-1
 68c:	ffc40413          	addi	s0,s0,-4
 690:	000780e7          	jalr	a5
 694:	fe0498e3          	bnez	s1,684 +ADwAXwBf-libc+AF8-fini+AF8-array+-0x2c+AD4-
 698:	00c12083          	lw	ra,12(sp)
 69c:	00812403          	lw	s0,8(sp)
 6a0:	00412483          	lw	s1,4(sp)
 6a4:	01010113          	addi	sp,sp,16
 6a8:	00008067          	ret

Disassembly of section .text.+AF8AXw-libc+AF8-init+AF8-array:

000006ac +ADwAXwBf-libc+AF8-init+AF8-array+AD4-:
 6ac:	ff010113          	addi	sp,sp,-16
 6b0:	00812423          	sw	s0,8(sp)
 6b4:	01212023          	sw	s2,0(sp)
 6b8:	00000413          	li	s0,0
 6bc:	00000913          	li	s2,0
 6c0:	40890933          	sub	s2,s2,s0
 6c4:	00112623          	sw	ra,12(sp)
 6c8:	00912223          	sw	s1,4(sp)
 6cc:	40295913          	srai	s2,s2,0x2
 6d0:	00090e63          	beqz	s2,6ec +ADwAXwBf-libc+AF8-init+AF8-array+-0x40+AD4-
 6d4:	00000493          	li	s1,0
 6d8:	00042783          	lw	a5,0(s0)
 6dc:	00148493          	addi	s1,s1,1
 6e0:	00440413          	addi	s0,s0,4
 6e4:	000780e7          	jalr	a5
 6e8:	fe9918e3          	bne	s2,s1,6d8 +ADwAXwBf-libc+AF8-init+AF8-array+-0x2c+AD4-
 6ec:	00000413          	li	s0,0
 6f0:	00000913          	li	s2,0
 6f4:	40890933          	sub	s2,s2,s0
 6f8:	40295913          	srai	s2,s2,0x2
 6fc:	00090e63          	beqz	s2,718 +ADwAXwBf-libc+AF8-init+AF8-array+-0x6c+AD4-
 700:	00000493          	li	s1,0
 704:	00042783          	lw	a5,0(s0)
 708:	00148493          	addi	s1,s1,1
 70c:	00440413          	addi	s0,s0,4
 710:	000780e7          	jalr	a5
 714:	fe9918e3          	bne	s2,s1,704 +ADwAXwBf-libc+AF8-init+AF8-array+-0x58+AD4-
 718:	00c12083          	lw	ra,12(sp)
 71c:	00812403          	lw	s0,8(sp)
 720:	00412483          	lw	s1,4(sp)
 724:	00012903          	lw	s2,0(sp)
 728:	01010113          	addi	sp,sp,16
 72c:	00008067          	ret

Disassembly of section .text.memcpy:

00000730 +ADw-memcpy+AD4-:
 730:	00b547b3          	xor	a5,a0,a1
 734:	0037f793          	andi	a5,a5,3
 738:	00c508b3          	add	a7,a0,a2
 73c:	06079663          	bnez	a5,7a8 +ADw-memcpy+-0x78+AD4-
 740:	00300793          	li	a5,3
 744:	06c7f263          	bgeu	a5,a2,7a8 +ADw-memcpy+-0x78+AD4-
 748:	00357793          	andi	a5,a0,3
 74c:	00050713          	mv	a4,a0
 750:	0c079a63          	bnez	a5,824 +ADw-memcpy+-0xf4+AD4-
 754:	ffc8f613          	andi	a2,a7,-4
 758:	40e606b3          	sub	a3,a2,a4
 75c:	02000793          	li	a5,32
 760:	02000293          	li	t0,32
 764:	06d7c263          	blt	a5,a3,7c8 +ADw-memcpy+-0x98+AD4-
 768:	00058693          	mv	a3,a1
 76c:	00070793          	mv	a5,a4
 770:	02c77863          	bgeu	a4,a2,7a0 +ADw-memcpy+-0x70+AD4-
 774:	0006a803          	lw	a6,0(a3)
 778:	00478793          	addi	a5,a5,4
 77c:	00468693          	addi	a3,a3,4
 780:	ff07ae23          	sw	a6,-4(a5)
 784:	fec7e8e3          	bltu	a5,a2,774 +ADw-memcpy+-0x44+AD4-
 788:	fff60793          	addi	a5,a2,-1
 78c:	40e787b3          	sub	a5,a5,a4
 790:	ffc7f793          	andi	a5,a5,-4
 794:	00478793          	addi	a5,a5,4
 798:	00f70733          	add	a4,a4,a5
 79c:	00f585b3          	add	a1,a1,a5
 7a0:	01176863          	bltu	a4,a7,7b0 +ADw-memcpy+-0x80+AD4-
 7a4:	00008067          	ret
 7a8:	00050713          	mv	a4,a0
 7ac:	ff157ce3          	bgeu	a0,a7,7a4 +ADw-memcpy+-0x74+AD4-
 7b0:	0005c783          	lbu	a5,0(a1)
 7b4:	00170713          	addi	a4,a4,1
 7b8:	00158593          	addi	a1,a1,1
 7bc:	fef70fa3          	sb	a5,-1(a4)
 7c0:	ff1768e3          	bltu	a4,a7,7b0 +ADw-memcpy+-0x80+AD4-
 7c4:	00008067          	ret
 7c8:	0045a683          	lw	a3,4(a1)
 7cc:	01c5a783          	lw	a5,28(a1)
 7d0:	0005af83          	lw	t6,0(a1)
 7d4:	0085af03          	lw	t5,8(a1)
 7d8:	00c5ae83          	lw	t4,12(a1)
 7dc:	0105ae03          	lw	t3,16(a1)
 7e0:	0145a303          	lw	t1,20(a1)
 7e4:	0185a803          	lw	a6,24(a1)
 7e8:	00d72223          	sw	a3,4(a4)
 7ec:	0205a683          	lw	a3,32(a1)
 7f0:	01f72023          	sw	t6,0(a4)
 7f4:	01e72423          	sw	t5,8(a4)
 7f8:	01d72623          	sw	t4,12(a4)
 7fc:	01c72823          	sw	t3,16(a4)
 800:	00672a23          	sw	t1,20(a4)
 804:	01072c23          	sw	a6,24(a4)
 808:	00f72e23          	sw	a5,28(a4)
 80c:	02470713          	addi	a4,a4,36
 810:	40e607b3          	sub	a5,a2,a4
 814:	fed72e23          	sw	a3,-4(a4)
 818:	02458593          	addi	a1,a1,36
 81c:	faf2c6e3          	blt	t0,a5,7c8 +ADw-memcpy+-0x98+AD4-
 820:	f49ff06f          	j	768 +ADw-memcpy+-0x38+AD4-
 824:	0005c683          	lbu	a3,0(a1)
 828:	00170713          	addi	a4,a4,1
 82c:	00377793          	andi	a5,a4,3
 830:	fed70fa3          	sb	a3,-1(a4)
 834:	00158593          	addi	a1,a1,1
 838:	f0078ee3          	beqz	a5,754 +ADw-memcpy+-0x24+AD4-
 83c:	0005c683          	lbu	a3,0(a1)
 840:	00170713          	addi	a4,a4,1
 844:	00377793          	andi	a5,a4,3
 848:	fed70fa3          	sb	a3,-1(a4)
 84c:	00158593          	addi	a1,a1,1
 850:	fc079ae3          	bnez	a5,824 +ADw-memcpy+-0xf4+AD4-
 854:	f01ff06f          	j	754 +ADw-memcpy+-0x24+AD4-

Disassembly of section .text.+AF8AXw-register+AF8-exitproc:

00000858 +ADwAXwBf-register+AF8-exitproc+AD4-:
 858:	00000717          	auipc	a4,0x0
 85c:	1c072703          	lw	a4,448(a4) +ACM- a18 +ADwAXw-global+AF8-impure+AF8-ptr+AD4-
 860:	14872783          	lw	a5,328(a4)
 864:	04078c63          	beqz	a5,8bc +ADwAXwBf-register+AF8-exitproc+-0x64+AD4-
 868:	0047a703          	lw	a4,4(a5)
 86c:	01f00813          	li	a6,31
 870:	06e84e63          	blt	a6,a4,8ec +ADwAXwBf-register+AF8-exitproc+-0x94+AD4-
 874:	00271813          	slli	a6,a4,0x2
 878:	02050663          	beqz	a0,8a4 +ADwAXwBf-register+AF8-exitproc+-0x4c+AD4-
 87c:	01078333          	add	t1,a5,a6
 880:	08c32423          	sw	a2,136(t1)
 884:	1887a883          	lw	a7,392(a5)
 888:	00100613          	li	a2,1
 88c:	00e61633          	sll	a2,a2,a4
 890:	00c8e8b3          	or	a7,a7,a2
 894:	1917a423          	sw	a7,392(a5)
 898:	10d32423          	sw	a3,264(t1)
 89c:	00200693          	li	a3,2
 8a0:	02d50463          	beq	a0,a3,8c8 +ADwAXwBf-register+AF8-exitproc+-0x70+AD4-
 8a4:	00170713          	addi	a4,a4,1
 8a8:	00e7a223          	sw	a4,4(a5)
 8ac:	010787b3          	add	a5,a5,a6
 8b0:	00b7a423          	sw	a1,8(a5)
 8b4:	00000513          	li	a0,0
 8b8:	00008067          	ret
 8bc:	14c70793          	addi	a5,a4,332
 8c0:	14f72423          	sw	a5,328(a4)
 8c4:	fa5ff06f          	j	868 +ADwAXwBf-register+AF8-exitproc+-0x10+AD4-
 8c8:	18c7a683          	lw	a3,396(a5)
 8cc:	00170713          	addi	a4,a4,1
 8d0:	00e7a223          	sw	a4,4(a5)
 8d4:	00c6e6b3          	or	a3,a3,a2
 8d8:	18d7a623          	sw	a3,396(a5)
 8dc:	010787b3          	add	a5,a5,a6
 8e0:	00b7a423          	sw	a1,8(a5)
 8e4:	00000513          	li	a0,0
 8e8:	00008067          	ret
 8ec:	fff00513          	li	a0,-1
 8f0:	00008067          	ret

Disassembly of section .text.+AF8AXw-call+AF8-exitprocs:

000008f4 +ADwAXwBf-call+AF8-exitprocs+AD4-:
 8f4:	fd010113          	addi	sp,sp,-48
 8f8:	01412c23          	sw	s4,24(sp)
 8fc:	00000a17          	auipc	s4,0x0
 900:	11ca2a03          	lw	s4,284(s4) +ACM- a18 +ADwAXw-global+AF8-impure+AF8-ptr+AD4-
 904:	03212023          	sw	s2,32(sp)
 908:	148a2903          	lw	s2,328(s4)
 90c:	02112623          	sw	ra,44(sp)
 910:	02812423          	sw	s0,40(sp)
 914:	02912223          	sw	s1,36(sp)
 918:	01312e23          	sw	s3,28(sp)
 91c:	01512a23          	sw	s5,20(sp)
 920:	01612823          	sw	s6,16(sp)
 924:	01712623          	sw	s7,12(sp)
 928:	01812423          	sw	s8,8(sp)
 92c:	04090063          	beqz	s2,96c +ADwAXwBf-call+AF8-exitprocs+-0x78+AD4-
 930:	00050b13          	mv	s6,a0
 934:	00058b93          	mv	s7,a1
 938:	00100a93          	li	s5,1
 93c:	fff00993          	li	s3,-1
 940:	00492483          	lw	s1,4(s2)
 944:	fff48413          	addi	s0,s1,-1
 948:	02044263          	bltz	s0,96c +ADwAXwBf-call+AF8-exitprocs+-0x78+AD4-
 94c:	00249493          	slli	s1,s1,0x2
 950:	009904b3          	add	s1,s2,s1
 954:	040b8463          	beqz	s7,99c +ADwAXwBf-call+AF8-exitprocs+-0xa8+AD4-
 958:	1044a783          	lw	a5,260(s1)
 95c:	05778063          	beq	a5,s7,99c +ADwAXwBf-call+AF8-exitprocs+-0xa8+AD4-
 960:	fff40413          	addi	s0,s0,-1
 964:	ffc48493          	addi	s1,s1,-4
 968:	ff3416e3          	bne	s0,s3,954 +ADwAXwBf-call+AF8-exitprocs+-0x60+AD4-
 96c:	02c12083          	lw	ra,44(sp)
 970:	02812403          	lw	s0,40(sp)
 974:	02412483          	lw	s1,36(sp)
 978:	02012903          	lw	s2,32(sp)
 97c:	01c12983          	lw	s3,28(sp)
 980:	01812a03          	lw	s4,24(sp)
 984:	01412a83          	lw	s5,20(sp)
 988:	01012b03          	lw	s6,16(sp)
 98c:	00c12b83          	lw	s7,12(sp)
 990:	00812c03          	lw	s8,8(sp)
 994:	03010113          	addi	sp,sp,48
 998:	00008067          	ret
 99c:	00492783          	lw	a5,4(s2)
 9a0:	0044a683          	lw	a3,4(s1)
 9a4:	fff78793          	addi	a5,a5,-1
 9a8:	04878e63          	beq	a5,s0,a04 +ADwAXwBf-call+AF8-exitprocs+-0x110+AD4-
 9ac:	0004a223          	sw	zero,4(s1)
 9b0:	fa0688e3          	beqz	a3,960 +ADwAXwBf-call+AF8-exitprocs+-0x6c+AD4-
 9b4:	18892783          	lw	a5,392(s2)
 9b8:	008a9733          	sll	a4,s5,s0
 9bc:	00492c03          	lw	s8,4(s2)
 9c0:	00f777b3          	and	a5,a4,a5
 9c4:	02079263          	bnez	a5,9e8 +ADwAXwBf-call+AF8-exitprocs+-0xf4+AD4-
 9c8:	000680e7          	jalr	a3
 9cc:	00492703          	lw	a4,4(s2)
 9d0:	148a2783          	lw	a5,328(s4)
 9d4:	01871463          	bne	a4,s8,9dc +ADwAXwBf-call+AF8-exitprocs+-0xe8+AD4-
 9d8:	f92784e3          	beq	a5,s2,960 +ADwAXwBf-call+AF8-exitprocs+-0x6c+AD4-
 9dc:	f80788e3          	beqz	a5,96c +ADwAXwBf-call+AF8-exitprocs+-0x78+AD4-
 9e0:	00078913          	mv	s2,a5
 9e4:	f5dff06f          	j	940 +ADwAXwBf-call+AF8-exitprocs+-0x4c+AD4-
 9e8:	18c92783          	lw	a5,396(s2)
 9ec:	0844a583          	lw	a1,132(s1)
 9f0:	00f77733          	and	a4,a4,a5
 9f4:	00071c63          	bnez	a4,a0c +ADwAXwBf-call+AF8-exitprocs+-0x118+AD4-
 9f8:	000b0513          	mv	a0,s6
 9fc:	000680e7          	jalr	a3
 a00:	fcdff06f          	j	9cc +ADwAXwBf-call+AF8-exitprocs+-0xd8+AD4-
 a04:	00892223          	sw	s0,4(s2)
 a08:	fa9ff06f          	j	9b0 +ADwAXwBf-call+AF8-exitprocs+-0xbc+AD4-
 a0c:	00058513          	mv	a0,a1
 a10:	000680e7          	jalr	a3
 a14:	fb9ff06f          	j	9cc +ADwAXwBf-call+AF8-exitprocs+-0xd8+AD4-
